target datalayout = "e-m:e-p270:32:32-p271:32:32-p272:64:64-i64:64-i128:128-f80:128-n8:16:32:64-S128"
target triple = "x86_64-pc-linux-gnu"

%struct.H5HF_block_iter_t = type { i8, ptr }
%struct.H5HF_hdr_t = type { %struct.H5C_cache_entry_t, i32, i32, i8, i8, i8, i8, %struct.H5HF_dtable_t, i64, i64, i32, i64, i64, %struct.H5O_pline_t, i64, i32, i64, i64, i64, i64, i64, i64, i64, i64, i64, i64, i64, i32, ptr, i64, i8, i8, i8, ptr, i32, ptr, %struct.H5HF_block_iter_t, ptr, i64, i8, i8, i64, i8, i8, i8, i8 }
%struct.H5C_cache_entry_t = type { ptr, i64, i64, ptr, i8, ptr, i8, i8, i8, i8, i32, i8, i8, i8, i8, i8, i32, ptr, i32, i32, i32, i32, i32, i8, i8, ptr, ptr, ptr, ptr, ptr, ptr, i8, i32, i8, i64, ptr, i64, i64, i32, i8, i32, i32, i8, ptr, ptr, ptr }
%struct.H5HF_dtable_t = type { %struct.H5HF_dtable_cparam_t, i64, i32, i32, i32, i32, i32, i32, i32, i64, ptr, ptr, ptr, ptr }
%struct.H5HF_dtable_cparam_t = type { i32, i64, i64, i32, i32 }
%struct.H5O_pline_t = type { %struct.H5O_shared_t, i32, i64, i64, ptr }
%struct.H5O_shared_t = type { i32, ptr, i32, %union.anon }
%union.anon = type { %struct.H5O_mesg_loc_t }
%struct.H5O_mesg_loc_t = type { i32, i64 }
%struct.H5HF_block_loc_t = type { i32, i32, i32, ptr, ptr }

; Function Attrs: nounwind uwtable
define i32 @H5HF__man_iter_set_entry(ptr noundef %0, ptr noundef %1, i32 noundef %2) #0 {
  %4 = alloca ptr, align 8
  %5 = alloca ptr, align 8
  %6 = alloca i32, align 4
  store ptr %0, ptr %4, align 8
  store ptr %1, ptr %5, align 8
  store i32 %2, ptr %6, align 4
  %7 = load i32, ptr %6, align 4
  %8 = load ptr, ptr %5, align 8
  %9 = getelementptr inbounds %struct.H5HF_block_iter_t, ptr %8, i32 0, i32 1
  %10 = load ptr, ptr %9, align 8
  %11 = getelementptr inbounds %struct.H5HF_block_loc_t, ptr %10, i32 0, i32 2
  store i32 %7, ptr %11, align 8
  %12 = load i32, ptr %6, align 4
  %13 = load ptr, ptr %4, align 8
  %14 = getelementptr inbounds %struct.H5HF_hdr_t, ptr %13, i32 0, i32 7
  %15 = getelementptr inbounds %struct.H5HF_dtable_t, ptr %14, i32 0, i32 0
  %16 = getelementptr inbounds %struct.H5HF_dtable_cparam_t, ptr %15, i32 0, i32 0
  %17 = load i32, ptr %16, align 8
  %18 = udiv i32 %12, %17
  %19 = load ptr, ptr %5, align 8
  %20 = getelementptr inbounds %struct.H5HF_block_iter_t, ptr %19, i32 0, i32 1
  %21 = load ptr, ptr %20, align 8
  %22 = getelementptr inbounds %struct.H5HF_block_loc_t, ptr %21, i32 0, i32 0
  store i32 %18, ptr %22, align 8
  %23 = load i32, ptr %6, align 4
  %24 = load ptr, ptr %4, align 8
  %25 = getelementptr inbounds %struct.H5HF_hdr_t, ptr %24, i32 0, i32 7
  %26 = getelementptr inbounds %struct.H5HF_dtable_t, ptr %25, i32 0, i32 0
  %27 = getelementptr inbounds %struct.H5HF_dtable_cparam_t, ptr %26, i32 0, i32 0
  %28 = load i32, ptr %27, align 8
  %29 = urem i32 %23, %28
  %30 = load ptr, ptr %5, align 8
  %31 = getelementptr inbounds %struct.H5HF_block_iter_t, ptr %30, i32 0, i32 1
  %32 = load ptr, ptr %31, align 8
  %33 = getelementptr inbounds %struct.H5HF_block_loc_t, ptr %32, i32 0, i32 1
  store i32 %29, ptr %33, align 4
  ret i32 0
}