; Function Attrs: mustprogress nofree norecurse nosync nounwind willreturn memory(write, argmem: readwrite, inaccessiblemem: none) uwtable
define noundef i32 @H5HF__man_iter_set_entry(ptr nocapture noundef readonly %0, ptr nocapture noundef readonly %1, i32 noundef %2) local_unnamed_addr #4 {
  %4 = getelementptr inbounds i8, ptr %1, i64 8
  %5 = load ptr, ptr %4, align 8
  %6 = getelementptr inbounds i8, ptr %5, i64 8
  store i32 %2, ptr %6, align 8
  %7 = getelementptr inbounds i8, ptr %0, i64 264
  %8 = load i32, ptr %7, align 8
  %9 = udiv i32 %2, %8
  %10 = load ptr, ptr %4, align 8
  store i32 %9, ptr %10, align 8
  %11 = load i32, ptr %7, align 8
  %12 = urem i32 %2, %11
  %13 = load ptr, ptr %4, align 8
  %14 = getelementptr inbounds i8, ptr %13, i64 4
  store i32 %12, ptr %14, align 4
  ret i32 0
}